	.file	"main.c"
	.option nopic
	.attribute arch, "rv32i2p1"
	.attribute unaligned_access, 0
	.attribute stack_align, 16
	.text
.Ltext0:
	.cfi_sections	.debug_frame
	.file 0 "/workspaces/rapidx-software" "main.c"
	.align	2
	.globl	main
	.type	main, @function
main:
.LFB0:
	.file 1 "main.c"
	.loc 1 3 12
	.cfi_startproc
	addi	sp,sp,-16
	.cfi_def_cfa_offset 16
	sw	ra,12(sp)
	sw	s0,8(sp)
	.cfi_offset 1, -4
	.cfi_offset 8, -8
	addi	s0,sp,16
	.cfi_def_cfa 8, 0
.L2:
	.loc 1 6 9 discriminator 1
	li	a4,0
	li	a3,480
	li	a2,640
	li	a1,0
	li	a0,0
	call	fill_rect
	.loc 1 7 9 discriminator 1
	li	a4,1
	li	a3,80
	li	a2,50
	li	a1,50
	li	a0,50
	call	fill_rect
	.loc 1 8 9 discriminator 1
	li	a4,1
	li	a3,80
	li	a2,50
	li	a1,50
	li	a0,300
	call	fill_rect
	.loc 1 6 9 discriminator 1
	j	.L2
	.cfi_endproc
.LFE0:
	.size	main, .-main
	.align	2
	.globl	fill_rect
	.type	fill_rect, @function
fill_rect:
.LFB1:
	.loc 1 13 55
	.cfi_startproc
	addi	sp,sp,-64
	.cfi_def_cfa_offset 64
	sw	s0,60(sp)
	.cfi_offset 8, -4
	addi	s0,sp,64
	.cfi_def_cfa 8, 0
	sw	a0,-36(s0)
	sw	a1,-40(s0)
	sw	a2,-44(s0)
	sw	a3,-48(s0)
	sw	a4,-52(s0)
	.loc 1 15 10
	li	a5,-1048576
	sw	a5,-28(s0)
.LBB2:
	.loc 1 17 13
	lw	a5,-40(s0)
	sw	a5,-20(s0)
	.loc 1 17 5
	j	.L4
.L7:
.LBB3:
	.loc 1 18 17
	lw	a5,-36(s0)
	sw	a5,-24(s0)
	.loc 1 18 9
	j	.L5
.L6:
	.loc 1 19 21 discriminator 3
	lw	a4,-20(s0)
	mv	a5,a4
	slli	a5,a5,2
	add	a5,a5,a4
	slli	a5,a5,7
	mv	a4,a5
	.loc 1 19 27 discriminator 3
	lw	a5,-24(s0)
	add	a5,a4,a5
	.loc 1 19 17 discriminator 3
	slli	a5,a5,2
	lw	a4,-28(s0)
	add	a5,a4,a5
	.loc 1 19 33 discriminator 3
	lw	a4,-52(s0)
	sw	a4,0(a5)
	.loc 1 18 37 discriminator 3
	lw	a5,-24(s0)
	addi	a5,a5,1
	sw	a5,-24(s0)
.L5:
	.loc 1 18 31 discriminator 1
	lw	a4,-36(s0)
	lw	a5,-44(s0)
	add	a5,a4,a5
	.loc 1 18 28 discriminator 1
	lw	a4,-24(s0)
	blt	a4,a5,.L6
.LBE3:
	.loc 1 17 33 discriminator 2
	lw	a5,-20(s0)
	addi	a5,a5,1
	sw	a5,-20(s0)
.L4:
	.loc 1 17 27 discriminator 1
	lw	a4,-40(s0)
	lw	a5,-48(s0)
	add	a5,a4,a5
	.loc 1 17 24 discriminator 1
	lw	a4,-20(s0)
	blt	a4,a5,.L7
.LBE2:
	.loc 1 23 1
	nop
	nop
	lw	s0,60(sp)
	.cfi_restore 8
	.cfi_def_cfa 2, 64
	addi	sp,sp,64
	.cfi_def_cfa_offset 0
	jr	ra
	.cfi_endproc
.LFE1:
	.size	fill_rect, .-fill_rect
.Letext0: